(lp0
F-0.005492027086534002
aF-0.020233064243258023
aF-0.01055009308397969
aF-0.021785203097557007
aF0.01692329143778483
aF-0.021474294247956882
aF-0.028073162265123446
aF-0.004155060137031786
aF0.002630077202826975
aF0.01122896651230754
aF-0.0002909925760388972
aF-0.01794232879046762
aF-0.003608908934285579
aF-0.0022376150616199818
aF-0.005479263206089152
aF-0.0036988967456838867
aF0.0012704395388032656
aF0.005976494442130001
aF0.005973274628278934
aF0.017430848064948063
aF-0.01521978644372988
aF-0.002650441159338876
aF-0.0013256863939256703
aF0.0014720417629066134
aF0.009517832173260837
aF-0.0009391077261455286
aF-0.002772879920298533
aF0.011925749873707307
aF0.0010966726221922297
aF0.00563897416966598
aF-0.006390408227978765
aF0.0016223356833252904
aF-0.002389832749518266
aF0.007457400735830842
aF0.0025037626532743752
aF-0.002158889298099378
aF0.004742581445087122
aF0.004826341187059712
aF0.005515073757495799
aF0.012631992760363569
aF-0.011686448602893109
aF-0.009784620106129585
aF-0.0031863843774145367
aF-0.005782517735005331
aF0.00814433912694512
aF-0.010874403531969064
aF-0.01010961602423093
aF0.0027233675018742895
aF-0.0033795888394111745
aF0.004229392743192581
aF-0.010669116808753796
aF-0.0017662445447284342
aF0.0028055841294976243
aF0.0034800053924008882
aF-0.0030675446496960276
aF-0.004829816084990356
aF0.0061454937594395895
aF0.0031334204095284264
aF0.0020801113784594855
aF0.009625468627136154
aF-0.013175871177333555
aF-0.008243437605225135
aF-0.0043901197690694675
aF-0.003785256644024708
aF0.011339644805798283
aF-0.006666751371077584
aF-0.003557940563094299
aF0.007223938229557414
aF-0.004169351702661907
aF0.008320467564281661
aF-0.012292198105960083
aF0.0010427189264804028
aF0.0008714948408287152
aF0.0017820268132162217
aF-0.0022818667872753695
aF0.005547247948308239
aF0.005609478099656588
aF0.01215221916841724
aF0.0045112121301631135
aF0.012153743616785308
aF-0.010018191847918613
aF-0.006799886026968851
aF0.0011145511076257454
aF0.005694770736964624
aF0.012690892441121423
aF-0.004305041034100744
aF0.0020148029518280647
aF0.009440560198643913
aF-0.004847755303823119
aF0.006543660006206213
aF-0.010685950671140214
aF-0.002135792881112134
aF-0.00024998759743262845
aF0.004605369157772373
aF-0.0026485654322374952
aF0.00531303003137371
aF0.008240683279198443
aF0.013409402299284312
aF0.007422682972231228
aF0.010125145737056163
aF-0.0029716808511933276
aF-0.01637259437585344
aF-0.010166425924672663
aF-0.02779389313338051
aF0.0175065512446578
aF-0.013203653268165352
aF-0.0232988550327701
aF-0.011494525006258097
aF-0.0008997497642750318
aF0.007147531209280597
aF-0.006003845068214287
aF-0.020169018147891765
aF-0.005785418643922359
aF-0.0009262885885490113
aF-0.007285601327231544
aF-0.00628087546410139
aF0.0016718935226138548
aF-0.005923102304682468
aF-0.00216220490179026
aF0.0146936402793412
aF-0.014495863793328862
aF0.00043045719611879674
aF0.0011623521703604718
aF-0.004889083855850004
aF0.013215707500521109
aF-0.002912612335442146
aF0.00444773186258976
aF0.018843944923597387
aF0.00428626530046857
aF0.009740737328939948
aF-0.010341718926544712
aF0.0075464102895340885
aF-0.003082455125048371
aF0.002311751370868496
aF0.0014568257068253846
aF-0.00531648921628878
aF0.0036836486142959083
aF0.006899884463203761
aF0.006490878443969547
aF0.01206503045312327
aF-0.015587501399198025
aF-0.00230528806611698
aF-0.0012274784828572973
aF-0.0008870861415227032
aF0.009965115992587415
aF-0.0018874487892573638
aF-0.00013034494922253901
aF0.009887058951172943
aF0.00226933710434514
aF0.0063345603972746085
aF-0.010796672991340421
aF0.0016261649187134198
aF-0.00565518831208626
aF0.0016789288236156474
aF-0.0013255952112930813
aF-0.0024718140717271226
aF0.00920006006698286
aF0.005739686246564409
aF0.0001008698684365555
aF0.01255116871097675
aF-0.008232374914097871
aF-0.004416961218919921
aF-0.006064051786864145
aF-0.009096838502887172
aF0.012455090906506974
aF-0.008292558578759447
aF-0.003493830936239896
aF-0.0005293091727657435
aF-0.0064573885242133365
aF0.00735897379741063
aF-0.008404547198140676
aF-0.0053659452014619665
aF-0.0059456978635373334
aF-0.0009042791576778816
aF-0.006586966986209496
aF-0.0034382979845780414
aF0.008616468333861085
aF0.0024901255390494415
aF-0.0011244076902059662
aF0.010169744551419382
aF-0.005701066169802896
aF-0.00326638256706118
aF-0.0023553586736038863
aF0.004545826046699451
aF0.006837396665227154
aF-6.080872413054638e-05
aF0.0050231402869071575
aF0.0018449639501172828
aF0.002338592092104848
aF0.007621789820853414
aF-0.010985106079618022
aF-0.0013374488827448499
aF-0.005195035773930184
aF-0.002839102714734284
aF0.000763584280893241
aF-0.0022744508666334155
aF0.001976779961918812
aF0.006632838403739539
aF-0.0014707565470558858
aF0.013871535966184876
aF-0.009066383864632151
a.