(lp0
(lp1
F0.3450126457343779
aF0.2435383381654432
aF0.41144901610017887
aa(lp2
(lp3
F-0.6231003039513677
aF-1.8125633232016212
aF-1.3071964017991005
aa(lp4
F-1.404970498837833
aF-2.6003039513677813
aF-1.7419790104947526
aa(lp5
F-2.0244949043447167
aF-3.0845997973657546
aF-1.1493253373313344
aa(lp6
F-1.9930269980332558
aF-3.355116514690983
aF-1.2581709145427287
aa(lp7
F-3.198998748435544
aF-2.8295339412360687
aF-3.333583208395802
aa(lp8
F-1.097443232612194
aF-2.497467071935157
aF-1.4679160419790105
aa(lp9
F-1.1262292150902915
aF-2.6818642350557242
aF-1.4880059970014992
aa(lp10
F-2.8941534060432685
aF-3.56484295845998
aF-1.4391304347826086
aa(lp11
F-1.9917754335776865
aF-2.5311550151975686
aF-1.802848575712144
aa(lp12
F-1.838190595387091
aF-0.7900202634245187
aF-2.85952023988006
aa(lp13
F-1.5474700518505276
aF-1.470871327254306
aF-2.7991004497751124
aa(lp14
F-1.2265331664580725
aF-2.5020263424518743
aF-1.363568215892054
aa(lp15
F-1.4176649383157518
aF-1.5876393110435663
aF-2.3412293853073463
aa(lp16
F-2.520650813516896
aF-1.7669706180344478
aF-3.153673163418291
aa(lp17
F-3.0740210978008227
aF-3.7806484295845997
aF-1.8773613193403298
aa(lp18
F-1.4886465224387628
aF-2.2188449848024314
aF-0.9733133433283359
aa(lp19
F-1.5206508135168961
aF-1.4483282674772036
aF-1.3386806596701648
aa(lp20
F-3.445020561416056
aF-3.435663627152989
aF-3.9476761619190404
aa(lp21
F-2.2601466118362237
aF-1.921225937183384
aF-2.7043478260869565
aa(lp22
F-1.6109422492401215
aF-0.38880445795339413
aF-2.481109445277361
aa(lp23
F-0.8344359020203826
aF-1.588145896656535
aF-1.2443778110944528
aa(lp24
F-1.7121401752190237
aF-2.2824214792299897
aF-1.646776611694153
aa(lp25
F-1.9901662792776684
aF-2.402482269503546
aF-1.5388305847076462
aa(lp26
F-1.8991596638655461
aF-2.664387031408308
aF-1.6946026986506746
aa(lp27
F-3.269801537636331
aF-3.0845997973657546
aF-3.0430284857571213
aa(lp28
F-1.3872698015376363
aF-2.0894123606889563
aF-1.4509745127436282
aa(lp29
F-1.3949579831932772
aF-2.2583586626139818
aF-1.4926536731634183
aa(lp30
F-2.77740032183086
aF-2.548632218844985
aF-2.08095952023988
aa(lp31
F-2.161094224924012
aF-2.263931104356636
aF-1.767016491754123
aa(lp32
F-2.0
aF-1.553191489361702
aF-2.228935532233883
aa(lp33
F-1.8101197925978902
aF-2.0511651469098275
aF-2.2025487256371816
aa(lp34
F-1.5254782764169497
aF-2.025835866261398
aF-1.3941529235382308
aa(lp35
F-1.6306096906847845
aF-1.885258358662614
aF-1.9559220389805096
aa(lp36
F-2.712497765063472
aF-2.298885511651469
aF-2.621739130434783
aa(lp37
F-2.877525478276417
aF-3.1998480243161094
aF-2.3241379310344827
aa(lp38
F-1.4165921687824066
aF-1.9017223910840932
aF-1.2028485757121439
aa(lp39
F-1.4612908993384588
aF-1.4989868287740629
aF-1.3281859070464768
aa(lp40
F-3.6254246379402826
aF-3.6666666666666665
aF-3.5679160419790104
aa(lp41
F-2.451457178616127
aF-2.2669706180344478
aF-2.2881559220389804
aa(lp42
F-1.7437868764527087
aF-1.1106889564336373
aF-1.908095952023988
aa(lp43
F-0.7239406400858216
aF-1.7241641337386018
aF-1.26311844077961
aa(lp44
F-1.5447881280171643
aF-2.421225937183384
aF-1.7187406296851575
aa(lp45
F-1.912569283032362
aF-2.8617021276595747
aF-1.3527736131934034
aa(lp46
F-1.7934918648310387
aF-3.1314589665653494
aF-1.5337331334332833
aa(lp47
F-3.2399427856248884
aF-2.9658054711246202
aF-3.1772113943028484
aa(lp48
F-1.2145539066690505
aF-2.298885511651469
aF-1.4806596701649175
aa(lp49
F-1.1989987484355444
aF-2.4969604863221884
aF-1.5256371814092953
aa(lp50
F-2.8001072769533346
aF-3.1785714285714284
aF-1.714392803598201
aa(lp51
F-2.0625782227784732
aF-2.4085612968591694
aF-1.7877061469265367
aa(lp52
F-2.0287859824780976
aF-1.1208206686930091
aF-2.4800599700149926
aa(lp53
F-1.8060075093867334
aF-1.7125126646403241
aF-2.4209895052473764
aa(lp54
F-1.356159485070624
aF-2.260385005065856
aF-1.3967016491754123
aa(lp55
F-1.620775969962453
aF-1.6952887537993921
aF-2.0934032983508244
aa(lp56
F-2.7273377436080817
aF-1.9989868287740629
aF-2.812143928035982
aa(lp57
F-2.927051671732523
aF-3.56484295845998
aF-2.089055472263868
aa(lp58
F-1.3450741998927231
aF-2.1106889564336373
aF-1.1460269865067467
aa(lp59
F-1.4441265868049347
aF-1.490628166160081
aF-1.3587706146926537
aa(lp60
F-3.5986053996066514
aF-3.5382472137791288
aF-3.7088455772113944
aa(lp61
F-2.4164133738601823
aF-2.069908814589666
aF-2.4547226386806598
aa(lp62
F-1.777579116753084
aF-0.6960486322188449
aF-2.139880059970015
aa(lp63
F-0.60790273556231
aF-1.7854609929078014
aF-1.3368815592203898
aa(lp64
F-1.3768996960486322
aF-2.711246200607903
aF-1.677511244377811
aa(lp65
F-1.9055962810656177
aF-2.9133738601823707
aF-1.3290854572713644
aa(lp66
F-2.0101913105667797
aF-3.0808004052684903
aF-1.3776611694152923
aa(lp67
F-3.113177185767924
aF-2.9343971631205674
aF-3.299550224887556
aa(lp68
F-1.052208117289469
aF-2.588145896656535
aF-1.4415292353823088
aa(lp69
F-1.1879134632576436
aF-2.6826241134751774
aF-1.41904047976012
aa(lp70
F-2.7571964956195245
aF-3.351823708206687
aF-1.6505247376311845
aa(lp71
F-1.9054174861433935
aF-2.6717325227963524
aF-1.7574212893553223
aa(lp72
F-1.846772751653853
aF-1.1005572441742655
aF-2.6407796101949024
aa(lp73
F-1.5174325049168604
aF-1.667933130699088
aF-2.68095952023988
aa(lp74
F-1.2048989808689434
aF-2.5797872340425534
aF-1.3229385307346326
aa(lp75
F-1.383515108170928
aF-1.7624113475177305
aF-2.2754122938530736
aa(lp76
F-2.4936527802610406
aF-2.0466058763931105
aF-2.9650674662668663
aa(lp77
F-3.3783300554264257
aF-3.6355116514690984
aF-1.6719640179910045
aa(lp78
F-1.4661183622385123
aF-2.11322188449848
aF-1.0580209895052475
aa(lp79
F-1.518147684605757
aF-1.5524316109422491
aF-1.2712143928035982
aa(lp80
F-3.4686214911496513
aF-3.656788247213779
aF-3.7413793103448274
aa(lp81
F-2.24852494189165
aF-2.1773049645390072
aF-2.5193403298350825
aa(lp82
F-1.6270337922403004
aF-0.7315096251266464
aF-2.2446776611694155
aa(lp83
F-0.7057035580189522
aF-1.666160081053698
aF-1.3172413793103448
aa(lp84
F-1.438226354371536
aF-2.568642350557244
aF-1.703448275862069
aa(lp85
F-1.9190059002324333
aF-2.496707193515704
aF-1.5575712143928035
aa(lp86
F-2.1662792776685142
aF-2.529888551165147
aF-1.557271364317841
aa(lp87
F-3.0893974611121044
aF-3.0395136778115504
aF-3.22143928035982
aa(lp88
F-1.1514392991239049
aF-2.4002026342451876
aF-1.465817091454273
aa(lp89
F-1.3944215984266046
aF-2.3576494427558257
aF-1.4305847076461768
aa(lp90
F-2.656713749329519
aF-2.7943262411347516
aF-2.032233883058471
aa(lp91
F-1.94350080457715
aF-2.5255825734549138
aF-1.7958020989505248
aa(lp92
F-1.806365099231182
aF-1.708966565349544
aF-2.290104947526237
aa(lp93
F-1.4791703915608796
aF-2.116514690982776
aF-2.424287856071964
aa(lp94
F-1.256034328625067
aF-2.364741641337386
aF-1.4116941529235383
aa(lp95
F-1.3729662077596996
aF-2.062563323201621
aF-2.0935532233883056
aa(lp96
F-2.4679063114607547
aF-2.4275582573454915
aF-2.725337331334333
aa(lp97
F-3.357053459681745
aF-3.237082066869301
aF-1.9106446776611694
aa(lp98
F-1.5540854639728232
aF-1.759371833839919
aF-1.1970014992503748
aa(lp99
F-1.5757196495619525
aF-1.5309017223910841
aF-1.2437781109445278
aa(lp100
F-3.4970498837833004
aF-3.797112462006079
aF-3.5776611694152924
aa(lp101
F-2.2717682817807976
aF-2.394883485309017
aF-2.338680659670165
aa(lp102
F-1.6154121222957267
aF-1.302178318135765
aF-1.8998500749625187
aaa(lp103
(lp104
F7.845788564407299
aF7.006407512454362
aF5.823621375219635
aa(lp105
F10.712630398736264
aF10.82859159960959
aF8.929976893112793
aa(lp106
F8.43798394387742
aF8.873795255238123
aF9.518331628788264
aa(lp107
F12.085236555144474
aF11.441268147518313
aF12.858685110218174
aa(lp108
F6.916415947254094
aF9.116078100925163
aF8.004314446974693
aa(lp109
F8.79490317150483
aF8.806731172927792
aF6.91913553717886
aa(lp110
F12.392791377462157
aF11.107502907606246
aF8.596182980473893
aa(lp111
F7.377317864541544
aF10.546707244841608
aF14.472681702626739
aa(lp112
F8.249172478087576
aF11.242443752059588
aF8.689617073022669
aa(lp113
F9.963268816167743
aF14.619282370409994
aF9.411299919755123
aa(lp114
F10.657544555915049
aF10.532332878073577
aF9.258589895457124
aa(lp115
F9.89772617166071
aF10.33358252007606
aF8.491656233352659
aa(lp116
F7.68681113965558
aF7.5255007088091554
aF7.773517529091108
aa(lp117
F10.07006344198796
aF13.67315424736363
aF9.539652924661718
aa(lp118
F7.749929423477685
aF7.901732912872341
aF14.004150158804329
aa(lp119
F5.696679609185658
aF7.266189952667332
aF6.53511990631373
aa(lp120
F4.873567822463688
aF8.603966303588123
aF6.791892112414535
aa(lp121
F9.640504885148214
aF12.123267112790522
aF8.326947373389189
aa(lp122
F8.271497707809441
aF12.448455234666362
aF8.781255459227049
aa(lp123
F8.007046367664302
aF13.834393403505848
aF8.313211362834297
aa(lp124
F7.9697278107045575
aF6.474246511642268
aF6.128885182595964
aa(lp125
F10.401313370660377
aF10.543085119214496
aF9.364588560292562
aa(lp126
F9.183346888138624
aF9.925394040972394
aF9.138447208180011
aa(lp127
F13.251765787666862
aF12.530980956590042
aF12.187542083531316
aa(lp128
F7.125669493958233
aF8.062245103262516
aF8.388703272051885
aa(lp129
F8.472943609846146
aF8.602187800576731
aF7.5465470263372545
aa(lp130
F11.827380263745969
aF10.634871875413818
aF9.572884562216508
aa(lp131
F8.879289004233637
aF14.917847673247783
aF11.998243157282003
aa(lp132
F8.273172555577435
aF10.118283634564305
aF9.239871608423549
aa(lp133
F10.748793134274987
aF14.152945741448066
aF10.131546543070323
aa(lp134
F11.120391063783224
aF10.27803055732642
aF9.509648676411363
aa(lp135
F9.301022589953133
aF10.51402349079094
aF8.956337625789132
aa(lp136
F8.309465335411822
aF7.687188965672292
aF7.30120555913952
aa(lp137
F10.317127911000266
aF12.40914769408606
aF10.429482432697004
aa(lp138
F9.605775961490812
aF10.331134728676671
aF11.95610401695724
aa(lp139
F6.474761352894254
aF6.674738674706326
aF6.409377192962615
aa(lp140
F5.889481401699391
aF7.472896643190335
aF6.459760277282647
aa(lp141
F9.761177295992516
aF10.82404593042897
aF9.121549330282118
aa(lp142
F8.438238981583188
aF11.124268735712253
aF9.400924185583468
aa(lp143
F8.841381475765703
aF13.471790508115056
aF8.909544650463117
aa(lp144
F7.891965733647749
aF6.874015892006698
aF5.9003339035130775
aa(lp145
F10.501882813147027
aF11.15514216475772
aF8.947279973206845
aa(lp146
F8.944081240729844
aF9.142474509043074
aF9.373451827309792
aa(lp147
F13.1601078319113
aF11.786416615084436
aF12.196388312590324
aa(lp148
F7.276595169263954
aF8.763521716971185
aF7.908326256661602
aa(lp149
F8.542917094939696
aF8.948154786284524
aF7.181559984625529
aa(lp150
F12.050690933844376
aF11.120811430049558
aF8.95938771244074
aa(lp151
F8.09306632140788
aF12.461273339123002
aF13.559957764745867
aa(lp152
F8.130895337390966
aF10.96504321888748
aF8.920748411401767
aa(lp153
F10.153471385092015
aF14.516557381214
aF10.071191600601402
aa(lp154
F10.738873260805358
aF10.575659036060527
aF9.658749845467195
aa(lp155
F9.45620066256725
aF10.721460034141913
aF8.70949436825805
aa(lp156
F7.920734101965018
aF7.642966659275744
aF7.692475224157175
aa(lp157
F9.890790284105558
aF13.289765944101436
aF10.213435733407628
aa(lp158
F8.821783851612258
aF9.119655573109128
aF12.957586364238804
aa(lp159
F6.311104379439855
aF7.001172473667372
aF6.290820047247572
aa(lp160
F5.530625703267656
aF8.049810851607914
aF6.50681587991601
aa(lp161
F9.587317919205882
aF11.786531071610417
aF8.735319057113287
aa(lp162
F8.326689299531363
aF11.996632514481716
aF9.094426722171029
aa(lp163
F8.243037443454446
aF13.821494011819329
aF8.806370600306831
aa(lp164
F7.901149776343504
aF7.133557614233115
aF5.513647246841594
aa(lp165
F10.784819495928813
aF10.461200777277929
aF8.79150325137302
aa(lp166
F8.694467161881395
aF9.859770481302537
aF9.076260482951744
aa(lp167
F11.84309299039836
aF13.362012327943111
aF12.312094679796452
aa(lp168
F7.01436775279961
aF9.401218050974752
aF7.819415090056334
aa(lp169
F8.947390529188588
aF8.372929389048533
aF6.768620150194896
aa(lp170
F11.983104407315453
aF11.11837082426156
aF8.79726864453831
aa(lp171
F8.172764677463014
aF11.972218052001274
aF13.544283832596772
aa(lp172
F8.489713186155765
aF10.572078356014199
aF8.682384954449446
aa(lp173
F10.093989674265684
aF15.483049334869113
aF9.364214084861795
aa(lp174
F10.807893854956562
aF11.545000084687603
aF8.65593431170474
aa(lp175
F9.912960087238451
aF9.871800157365023
aF8.474421350044867
aa(lp176
F7.540203842834513
aF7.990157508604616
aF7.26162932776531
aa(lp177
F10.041842423332822
aF13.686784325922947
aF9.899079568162119
aa(lp178
F5.503567602846088
aF9.175405589276538
aF14.577249965721693
aa(lp179
F5.681714541327255
aF7.730088606288955
aF6.250456653232592
aa(lp180
F4.798571072771849
aF8.637828433773167
aF6.696607670676896
aa(lp181
F9.235605770015367
aF11.666146928818234
aF9.091586103499925
aa(lp182
F8.058385540992449
aF12.312534580755523
aF9.201649939648123
aa(lp183
F8.155550239694922
aF14.29468090238955
aF8.54463059324931
aa(lp184
F7.865830154925583
aF6.982269246917156
aF5.714950111151251
aa(lp185
F10.74573702939997
aF9.99047566438681
aF9.139643281807764
aa(lp186
F8.880799154801329
aF10.337121882856202
aF9.086565615243366
aa(lp187
F11.23500094256565
aF14.665013462756397
aF12.565460620514807
aa(lp188
F6.976452935713094
aF9.483747686489451
aF7.744218018426783
aa(lp189
F8.941664744080834
aF7.859594690448981
aF7.246132878088621
aa(lp190
F11.229377070243537
aF10.943515447524982
aF9.841583316288176
aa(lp191
F9.488090541518847
aF13.837637514640512
aF12.158930991775609
aa(lp192
F8.596486010056523
aF10.119153029402362
aF8.84406033864624
aa(lp193
F10.523385196221632
aF14.70177370404918
aF10.057518279840767
aa(lp194
F11.17929972297844
aF11.351672553735423
aF8.60798581219154
aa(lp195
F9.984509000788185
aF9.554906797485936
aF8.690178089366174
aa(lp196
F7.739673250601475
aF8.051556955210046
aF6.999643596492609
aa(lp197
F10.383423776668755
aF13.150527269908986
aF10.092176610345465
aa(lp198
F6.310381591456382
aF11.086142650813342
aF13.417502882741633
aa(lp199
F5.55120492529003
aF8.053040334890492
aF6.322209899547893
aa(lp200
F4.828925930343656
aF8.365559774535965
aF6.6743053660575065
aa(lp201
F8.919757075466034
aF10.959089939733298
aF9.812484484894021
aa(lp202
F8.35596499404506
aF11.695890741236777
aF9.271052532204541
aa(lp203
F8.490568831585687
aF13.633865569013832
aF9.255337308856884
aaa.