(inode
Node
p0
(dp1
S'right'
p2
(inode
Node
p3
(dp4
g2
(inode
Node
p5
(dp6
g2
(inode
Node
p7
(dp8
g2
NsS'data'
p9
S'exposed'
p10
sS'left'
p11
Nsbsg9
S'SMALL'
p12
sg11
(inode
Node
p13
(dp14
g2
Nsg9
g10
sg11
Nsbsbsg9
S'ALIPHATIC'
p15
sg11
(inode
Node
p16
(dp17
g2
(inode
Node
p18
(dp19
g2
(inode
Node
p20
(dp21
g2
Nsg9
S'buried'
p22
sg11
Nsbsg9
S'PROLINE'
p23
sg11
(inode
Node
p24
(dp25
g2
(inode
Node
p26
(dp27
g2
Nsg9
g22
sg11
Nsbsg9
S'POLAR'
p28
sg11
(inode
Node
p29
(dp30
g2
(inode
Node
p31
(dp32
g2
Nsg9
g10
sg11
Nsbsg9
S'TINY'
p33
sg11
(inode
Node
p34
(dp35
g2
Nsg9
g10
sg11
Nsbsbsbsbsg9
g12
sg11
(inode
Node
p36
(dp37
g2
(inode
Node
p38
(dp39
g2
Nsg9
g10
sg11
Nsbsg9
g28
sg11
(inode
Node
p40
(dp41
g2
(inode
Node
p42
(dp43
g2
Nsg9
g10
sg11
Nsbsg9
S'AROMATIC'
p44
sg11
(inode
Node
p45
(dp46
g2
Nsg9
g10
sg11
Nsbsbsbsbsbsg9
S'HYDROPHOBIC'
p47
sg11
(inode
Node
p48
(dp49
g2
(inode
Node
p50
(dp51
g2
Nsg9
g22
sg11
Nsbsg9
g33
sg11
(inode
Node
p52
(dp53
g2
(inode
Node
p54
(dp55
g2
Nsg9
g22
sg11
Nsbsg9
g44
sg11
(inode
Node
p56
(dp57
g2
(inode
Node
p58
(dp59
g2
(inode
Node
p60
(dp61
g2
Nsg9
g22
sg11
Nsbsg9
S'NEGATIVE'
p62
sg11
(inode
Node
p63
(dp64
g2
Nsg9
g22
sg11
Nsbsbsg9
g12
sg11
(inode
Node
p65
(dp66
g2
(inode
Node
p67
(dp68
g2
(inode
Node
p69
(dp70
g2
Nsg9
g22
sg11
Nsbsg9
S'POSITIVE'
p71
sg11
(inode
Node
p72
(dp73
g2
Nsg9
g22
sg11
Nsbsbsg9
S'CHARGED'
p74
sg11
(inode
Node
p75
(dp76
g2
Nsg9
g22
sg11
Nsbsbsbsbsbsb.