(lp0
F0.010963743619182195
aF0.005492073921854098
aF0.0033466103644549305
aF0.006074836209811294
aF-0.0005398434739484236
aF0.0040646440334578
aF0.005657540846535423
aF0.007508728596775851
aF0.0028922421082852737
aF0.0063925648040756775
aF0.011871705363954538
aF0.006441700526664027
aF0.0030365016485495245
aF0.0034387406963230535
aF0.002575105424800722
aF0.006494589932266476
aF0.0055851502377388985
aF0.0006268559158906804
aF0.0028560761301483044
aF0.008894253599560871
aF0.04875690994079922
aF0.05540229168103836
aF0.04613503167451017
aF0.019400519586425868
aF0.038623650360899306
aF0.010886627397515954
aF0.005303168502963726
aF0.0032023613791692307
aF0.006336119251149874
aF-0.00020264994660874707
aF0.00364204253151011
aF0.007784071831880192
aF0.007248977675225721
aF0.0024178373628210635
aF0.006322721052522793
aF0.011644132729127623
aF0.006610973851807963
aF0.0029915262538095324
aF0.004024794292747258
aF0.003489433293295503
aF0.005646977766323839
aF0.0049106561515476245
aF0.0006551197726112846
aF0.0027121824089616367
aF0.008041195580989459
aF0.049452682010284056
aF0.054706519611550694
aF0.043391886318668665
aF0.027074734104188047
aF0.03369258119898301
aF0.104159201621836
a.