(lp0
F0.0752619080369903
aF0.019973330744848757
aF-0.04805275635599522
aF0.010127772557854072
aF-0.11384182498123809
aF0.02363954025986225
aF-0.09838742101831195
aF-0.03880081628227968
aF0.04109849168872984
aF0.06121108827581754
aF0.17184615303429285
aF-0.00752356430044346
aF0.045978169701415154
aF-0.036561040862775895
aF-0.10822122997365781
aF0.03669689478726501
aF0.007261459235636539
aF-0.00812793732183863
aF-0.004309476309230453
aF0.05354411928225056
aF0.010193921861212747
aF0.08934209843317972
aF0.039065693046286064
aF0.025337327382141176
aF0.03513299986596991
aF0.13302180463916013
aF-0.03675736437734585
aF-0.027945610036794216
aF0.018241591388301826
aF-0.09214363028282908
aF-0.013050263475776255
aF0.014337951986060919
aF-0.042410179049412966
aF0.019729384461767453
aF-0.017877605832942702
aF0.13713624932218071
aF0.017608435449036414
aF0.051077536459685775
aF0.007412560829818548
aF-0.052484966853028045
aF0.02588822977909567
aF-0.007124392307366476
aF-0.018241378057258967
aF-0.03217300501240396
aF0.00037764756009310075
aF0.013084772243203707
aF0.08645124805119732
aF0.037755969956766784
aF0.03197979868734106
aF0.029800251650293458
aF0.09953602029441046
a.